target datalayout = "e-m:e-p270:32:32-p271:32:32-p272:64:64-i64:64-i128:128-f80:128-n8:16:32:64-S128"
target triple = "x86_64-pc-linux-gnu"

%"class.sls::bv_eval" = type <{ ptr, ptr, ptr, %"class.sls::bv_lookahead", %class.bv_util, %"class.sls::bv_fixed", [8 x i8], %class.ptr_vector, %class.random_gen, %"struct.sls::bv_eval::config", %class.svector.7, i32, i32, %class.svector.9, %class.svector.11, %class.scoped_ptr_vector, %"class.sls::bvect", %"class.sls::bvect", %"class.sls::bvect", %"class.sls::bvect", %"class.sls::bvect", %"class.sls::bvect", %"class.sls::bvect", %"class.sls::bvect", %"class.sls::bvect", %"class.sls::bvect", %"class.sls::bvect", %"class.sls::bvect", %"class.sls::bvect", i8, [7 x i8] }>
%"class.sls::bv_lookahead" = type { %class.bv_util, ptr, ptr, ptr, %"struct.sls::bv_lookahead::config", %"struct.sls::bv_lookahead::stats", %"class.sls::bvect", %"class.sls::bvect", %class.ptr_vector, %class.svector.1, %class.vector.3, %class.obj_mark, double, double, %"class.sls::bvect", ptr, ptr, %class.ptr_vector, %class.vector.4, %class.obj_mark, i32, %class.tracked_uint_set, i32, i32 }
%"struct.sls::bv_lookahead::config" = type <{ i8, [7 x i8], double, i32, i32, i8, i8, i8, i8, i32, i32, i32, i32, i8, [3 x i8], i32, i32, i32, i8, [3 x i8], double, double, i8, [7 x i8], double, i8, i8, i8, [5 x i8] }>
%"struct.sls::bv_lookahead::stats" = type { i32, i32, i32, i32, i32, i32 }
%class.svector.1 = type { %class.vector.2 }
%class.vector.2 = type { ptr }
%class.vector.3 = type { ptr }
%class.vector.4 = type { ptr }
%class.obj_mark = type { [8 x i8], %class.bit_vector }
%class.bit_vector = type { i32, i32, ptr }
%class.tracked_uint_set = type { %class.svector.5, %class.svector }
%class.svector.5 = type { %class.vector.6 }
%class.vector.6 = type { ptr }
%class.svector = type { %class.vector }
%class.vector = type { ptr }
%class.bv_util = type { %class.bv_recognizers, ptr, ptr }
%class.bv_recognizers = type { i32 }
%"class.sls::bv_fixed" = type { ptr, ptr, ptr, ptr, ptr }
%class.ptr_vector = type { %class.vector.0 }
%class.vector.0 = type { ptr }
%class.random_gen = type { i32 }
%"struct.sls::bv_eval::config" = type { i32 }
%class.svector.7 = type { %class.vector.8 }
%class.vector.8 = type { ptr }
%class.svector.9 = type { %class.vector.10 }
%class.vector.10 = type { ptr }
%class.svector.11 = type { %class.vector.12 }
%class.vector.12 = type { ptr }
%class.scoped_ptr_vector = type { %class.ptr_vector.13 }
%class.ptr_vector.13 = type { %class.vector.14 }
%class.vector.14 = type { ptr }
%"class.sls::bvect" = type <{ %class.svector, i32, i32, i32, [4 x i8] }>
%"class.sls::bv_valuation" = type { %"class.sls::bvect", %"class.sls::bvect", %"class.sls::bvect", %"class.sls::bvect", %"class.sls::bvect", %"class.sls::bvect", i32, i32, i32, i32, %"class.sls::bvect" }
%class.ast = type { i32, i32, i32, i32 }

; Function Attrs: mustprogress uwtable
define linkonce_odr hidden void @_ZNK3sls12bv_valuation19clear_overflow_bitsERNS_5bvectE(ptr noundef nonnull align 8 dereferenceable(184) %0, ptr noundef nonnull align 8 dereferenceable(20) %1) #4 comdat align 2 {
  %3 = alloca ptr, align 8
  %4 = alloca ptr, align 8
  store ptr %0, ptr %3, align 8, !tbaa !122
  store ptr %1, ptr %4, align 8, !tbaa !110
  %5 = load ptr, ptr %3, align 8
  %6 = getelementptr inbounds nuw %"class.sls::bv_valuation", ptr %5, i32 0, i32 7
  %7 = load i32, ptr %6, align 4, !tbaa !237
  %8 = load ptr, ptr %4, align 8, !tbaa !110
  %9 = getelementptr inbounds nuw %"class.sls::bv_valuation", ptr %5, i32 0, i32 9
  %10 = load i32, ptr %9, align 4, !tbaa !128
  %11 = sub i32 %10, 1
  %12 = call noundef nonnull align 4 dereferenceable(4) ptr @_ZN6vectorIjLb0EjEixEj(ptr noundef nonnull align 8 dereferenceable(8) %8, i32 noundef %11)
  %13 = load i32, ptr %12, align 4, !tbaa !97
  %14 = and i32 %13, %7
  store i32 %14, ptr %12, align 4, !tbaa !97
  ret void
}

; Function Attrs: mustprogress nounwind uwtable
define linkonce_odr hidden noundef nonnull align 4 dereferenceable(4) ptr @_ZN6vectorIjLb0EjEixEj(ptr noundef nonnull align 8 dereferenceable(8) %0, i32 noundef %1) #5 comdat align 2 {
  %3 = alloca ptr, align 8
  %4 = alloca i32, align 4
  store ptr %0, ptr %3, align 8, !tbaa !149
  store i32 %1, ptr %4, align 4, !tbaa !97
  %5 = load ptr, ptr %3, align 8
  %6 = getelementptr inbounds nuw %class.vector, ptr %5, i32 0, i32 0
  %7 = load ptr, ptr %6, align 8, !tbaa !151
  %8 = load i32, ptr %4, align 4, !tbaa !97
  %9 = zext i32 %8 to i64
  %10 = getelementptr inbounds nuw i32, ptr %7, i64 %9
  ret ptr %10
}

; Function Attrs: mustprogress nounwind uwtable
define linkonce_odr hidden noundef nonnull align 4 dereferenceable(4) ptr @_ZNK6vectorIjLb0EjEixEj(ptr noundef nonnull align 8 dereferenceable(8) %0, i32 noundef %1) #5 comdat align 2 {
  %3 = alloca ptr, align 8
  %4 = alloca i32, align 4
  store ptr %0, ptr %3, align 8, !tbaa !149
  store i32 %1, ptr %4, align 4, !tbaa !97
  %5 = load ptr, ptr %3, align 8
  %6 = getelementptr inbounds nuw %class.vector, ptr %5, i32 0, i32 0
  %7 = load ptr, ptr %6, align 8, !tbaa !151
  %8 = load i32, ptr %4, align 4, !tbaa !97
  %9 = zext i32 %8 to i64
  %10 = getelementptr inbounds nuw i32, ptr %7, i64 %9
  ret ptr %10
}

; Function Attrs: mustprogress nounwind uwtable
define linkonce_odr hidden noundef nonnull align 8 dereferenceable(8) ptr @_ZNK6vectorIPN3sls12bv_valuationELb0EjEixEj(ptr noundef nonnull align 8 dereferenceable(8) %0, i32 noundef %1) #5 comdat align 2 {
  %3 = alloca ptr, align 8
  %4 = alloca i32, align 4
  store ptr %0, ptr %3, align 8, !tbaa !389
  store i32 %1, ptr %4, align 4, !tbaa !97
  %5 = load ptr, ptr %3, align 8
  %6 = getelementptr inbounds nuw %class.vector.14, ptr %5, i32 0, i32 0
  %7 = load ptr, ptr %6, align 8, !tbaa !391
  %8 = load i32, ptr %4, align 4, !tbaa !97
  %9 = zext i32 %8 to i64
  %10 = getelementptr inbounds nuw ptr, ptr %7, i64 %9
  ret ptr %10
}

; Function Attrs: mustprogress uwtable
define linkonce_odr hidden void @_ZN3sls12bv_valuation3setERKNS_5bvectE(ptr noundef nonnull align 8 dereferenceable(184) %0, ptr noundef nonnull align 8 dereferenceable(20) %1) #4 comdat align 2 {
  %3 = alloca ptr, align 8
  %4 = alloca ptr, align 8
  %5 = alloca i32, align 4
  store ptr %0, ptr %3, align 8, !tbaa !122
  store ptr %1, ptr %4, align 8, !tbaa !110
  %6 = load ptr, ptr %3, align 8
  call void @llvm.lifetime.start.p0(i64 4, ptr %5) #3
  %7 = getelementptr inbounds nuw %"class.sls::bv_valuation", ptr %6, i32 0, i32 9
  %8 = load i32, ptr %7, align 4, !tbaa !128
  store i32 %8, ptr %5, align 4, !tbaa !97
  br label %9

9:                                                ; preds = %14, %2
  %10 = load i32, ptr %5, align 4, !tbaa !97
  %11 = add i32 %10, -1
  store i32 %11, ptr %5, align 4, !tbaa !97
  %12 = icmp ugt i32 %10, 0
  br i1 %12, label %14, label %13

13:                                               ; preds = %9
  call void @llvm.lifetime.end.p0(i64 4, ptr %5) #3
  br label %22

14:                                               ; preds = %9
  %15 = load ptr, ptr %4, align 8, !tbaa !110
  %16 = load i32, ptr %5, align 4, !tbaa !97
  %17 = call noundef nonnull align 4 dereferenceable(4) ptr @_ZNK6vectorIjLb0EjEixEj(ptr noundef nonnull align 8 dereferenceable(8) %15, i32 noundef %16)
  %18 = load i32, ptr %17, align 4, !tbaa !97
  %19 = getelementptr inbounds nuw %"class.sls::bv_valuation", ptr %6, i32 0, i32 10
  %20 = load i32, ptr %5, align 4, !tbaa !97
  %21 = call noundef nonnull align 4 dereferenceable(4) ptr @_ZN6vectorIjLb0EjEixEj(ptr noundef nonnull align 8 dereferenceable(8) %19, i32 noundef %20)
  store i32 %18, ptr %21, align 4, !tbaa !97
  br label %9, !llvm.loop !229

22:                                               ; preds = %13
  %23 = getelementptr inbounds nuw %"class.sls::bv_valuation", ptr %6, i32 0, i32 10
  call void @_ZNK3sls12bv_valuation19clear_overflow_bitsERNS_5bvectE(ptr noundef nonnull align 8 dereferenceable(184) %6, ptr noundef nonnull align 8 dereferenceable(20) %23)
  ret void
}

; Function Attrs: mustprogress nounwind uwtable
define linkonce_odr hidden noundef nonnull align 8 dereferenceable(20) ptr @_ZNK3sls12bv_valuation4bitsEv(ptr noundef nonnull align 8 dereferenceable(184) %0) #5 comdat align 2 {
  %2 = alloca ptr, align 8
  store ptr %0, ptr %2, align 8, !tbaa !122
  %3 = load ptr, ptr %2, align 8
  %4 = getelementptr inbounds nuw %"class.sls::bv_valuation", ptr %3, i32 0, i32 0
  ret ptr %4
}

; Function Attrs: mustprogress uwtable
define linkonce_odr hidden noundef ptr @_ZNK17scoped_ptr_vectorIN3sls12bv_valuationEEixEj(ptr noundef nonnull align 8 dereferenceable(8) %0, i32 noundef %1) #4 comdat align 2 {
  %3 = alloca ptr, align 8
  %4 = alloca i32, align 4
  store ptr %0, ptr %3, align 8, !tbaa !108
  store i32 %1, ptr %4, align 4, !tbaa !97
  %5 = load ptr, ptr %3, align 8
  %6 = getelementptr inbounds nuw %class.scoped_ptr_vector, ptr %5, i32 0, i32 0
  %7 = load i32, ptr %4, align 4, !tbaa !97
  %8 = call noundef nonnull align 8 dereferenceable(8) ptr @_ZNK6vectorIPN3sls12bv_valuationELb0EjEixEj(ptr noundef nonnull align 8 dereferenceable(8) %6, i32 noundef %7)
  %9 = load ptr, ptr %8, align 8, !tbaa !122
  ret ptr %9
}

; Function Attrs: mustprogress nounwind uwtable
define linkonce_odr hidden noundef i32 @_ZNK3ast6get_idEv(ptr noundef nonnull align 4 dereferenceable(16) %0) #5 comdat align 2 {
  %2 = alloca ptr, align 8
  store ptr %0, ptr %2, align 8, !tbaa !129
  %3 = load ptr, ptr %2, align 8
  %4 = getelementptr inbounds nuw %class.ast, ptr %3, i32 0, i32 0
  %5 = load i32, ptr %4, align 4, !tbaa !137
  ret i32 %5
}

; Function Attrs: mustprogress uwtable
define hidden void @_ZN3sls7bv_eval3setEP4exprRKNS_12bv_valuationE(ptr noundef nonnull align 8 dereferenceable(865) %0, ptr noundef %1, ptr noundef nonnull align 8 dereferenceable(184) %2) #4 align 2 {
  %4 = alloca ptr, align 8
  %5 = alloca ptr, align 8
  %6 = alloca ptr, align 8
  store ptr %0, ptr %4, align 8, !tbaa !3
  store ptr %1, ptr %5, align 8, !tbaa !119
  store ptr %2, ptr %6, align 8, !tbaa !122
  %7 = load ptr, ptr %4, align 8
  %8 = getelementptr inbounds nuw %"class.sls::bv_eval", ptr %7, i32 0, i32 15
  %9 = load ptr, ptr %5, align 8, !tbaa !119
  %10 = call noundef i32 @_ZNK3ast6get_idEv(ptr noundef nonnull align 4 dereferenceable(16) %9)
  %11 = call noundef ptr @_ZNK17scoped_ptr_vectorIN3sls12bv_valuationEEixEj(ptr noundef nonnull align 8 dereferenceable(8) %8, i32 noundef %10)
  %12 = load ptr, ptr %6, align 8, !tbaa !122
  %13 = call noundef nonnull align 8 dereferenceable(20) ptr @_ZNK3sls12bv_valuation4bitsEv(ptr noundef nonnull align 8 dereferenceable(184) %12)
  call void @_ZN3sls12bv_valuation3setERKNS_5bvectE(ptr noundef nonnull align 8 dereferenceable(184) %11, ptr noundef nonnull align 8 dereferenceable(20) %13)
  ret void
}