; Function Attrs: mustprogress nofree norecurse nosync nounwind memory(readwrite, inaccessiblemem: none) uwtable
define hidden void @_ZN3sls7bv_eval3setEP4exprRKNS_12bv_valuationE(ptr noundef nonnull readonly align 8 captures(none) dereferenceable(865) %0, ptr noundef readonly captures(none) %1, ptr noundef nonnull readonly align 8 captures(none) dereferenceable(184) %2) local_unnamed_addr #9 align 2 {
  %4 = getelementptr inbounds nuw i8, ptr %0, i64 544
  %5 = load i32, ptr %1, align 4, !tbaa !124
  %6 = load ptr, ptr %4, align 8, !tbaa !125
  %7 = zext i32 %5 to i64
  %8 = getelementptr inbounds nuw ptr, ptr %6, i64 %7
  %9 = load ptr, ptr %8, align 8, !tbaa !126
  %10 = getelementptr inbounds nuw i8, ptr %9, i64 156
  %11 = load i32, ptr %10, align 4, !tbaa !131
  %.not4.i = icmp eq i32 %11, 0
  br i1 %.not4.i, label %.._crit_edge_crit_edge.i, label %.lr.ph.i

.._crit_edge_crit_edge.i:                         ; preds = %3
  %.phi.trans.insert.i = getelementptr inbounds nuw i8, ptr %9, i64 160
  %.pre7.i = load ptr, ptr %.phi.trans.insert.i, align 8, !tbaa !97
  br label %_ZN3sls12bv_valuation3setERKNS_5bvectE.exit

.lr.ph.i:                                         ; preds = %3
  %12 = load ptr, ptr %2, align 8, !tbaa !97
  %13 = getelementptr inbounds nuw i8, ptr %9, i64 160
  %14 = load ptr, ptr %13, align 8, !tbaa !97
  %15 = zext i32 %11 to i64
  br label %18

._crit_edge.loopexit.i:                           ; preds = %18
  %.pre.i = load i32, ptr %10, align 4, !tbaa !131
  %16 = add i32 %.pre.i, -1
  %17 = zext i32 %16 to i64
  br label %_ZN3sls12bv_valuation3setERKNS_5bvectE.exit

18:                                               ; preds = %18, %.lr.ph.i
  %indvars.iv.i = phi i64 [ %15, %.lr.ph.i ], [ %19, %18 ]
  %19 = add nsw i64 %indvars.iv.i, -1
  %20 = getelementptr inbounds nuw i32, ptr %12, i64 %19
  %21 = load i32, ptr %20, align 4, !tbaa !102
  %22 = getelementptr inbounds nuw i32, ptr %14, i64 %19
  store i32 %21, ptr %22, align 4, !tbaa !102
  %.not.wide.i = icmp eq i64 %19, 0
  br i1 %.not.wide.i, label %._crit_edge.loopexit.i, label %18, !llvm.loop !175

_ZN3sls12bv_valuation3setERKNS_5bvectE.exit:      ; preds = %.._crit_edge_crit_edge.i, %._crit_edge.loopexit.i
  %23 = phi ptr [ %14, %._crit_edge.loopexit.i ], [ %.pre7.i, %.._crit_edge_crit_edge.i ]
  %24 = phi i64 [ %17, %._crit_edge.loopexit.i ], [ 4294967295, %.._crit_edge_crit_edge.i ]
  %25 = getelementptr inbounds nuw i8, ptr %9, i64 148
  %26 = load i32, ptr %25, align 4, !tbaa !157
  %27 = getelementptr inbounds nuw i32, ptr %23, i64 %24
  %28 = load i32, ptr %27, align 4, !tbaa !102
  %29 = and i32 %28, %26
  store i32 %29, ptr %27, align 4, !tbaa !102
  ret void
}